target datalayout = "e-m:e-p270:32:32-p271:32:32-p272:64:64-i64:64-i128:128-f80:128-n8:16:32:64-S128"
target triple = "x86_64-pc-linux-gnu"

%class.btAlignedObjectArray.0 = type <{ [4 x i8], i32, i32, [4 x i8], ptr, i8, [7 x i8] }>
%class.btAlignedObjectArray.2 = type <{ [4 x i8], i32, i32, [4 x i8], ptr, i8, [7 x i8] }>
%class.btAlignedObjectArray.4 = type <{ [4 x i8], i32, i32, [4 x i8], ptr, i8, [7 x i8] }>
%class.CProfileSample = type { i8 }
%struct.UpdateIslandDispatcher = type { %class.btIParallelForBody, ptr, ptr }
%class.btIParallelForBody = type { ptr }
%"struct.btSimulationIslandManagerMt::SolverParams" = type { ptr, ptr, ptr, ptr, ptr }
%"struct.btSimulationIslandManagerMt::Island" = type <{ %class.btAlignedObjectArray.2, %class.btAlignedObjectArray.0, %class.btAlignedObjectArray.6, i32, i8, [3 x i8] }>
%class.btAlignedObjectArray.6 = type <{ [4 x i8], i32, i32, [4 x i8], ptr, i8, [7 x i8] }>

@.str.2 = private unnamed_addr constant [23 x i8] c"parallelIslandDispatch\00", align 1
@_ZN37btSequentialImpulseConstraintSolverMt36s_minimumContactManifoldsForBatchingE = external global i32, align 4
@_ZTV22UpdateIslandDispatcher = linkonce_odr dso_local unnamed_addr constant { [5 x ptr] } { [5 x ptr] [ptr null, ptr @_ZTI22UpdateIslandDispatcher, ptr @_ZN18btIParallelForBodyD2Ev, ptr @_ZN22UpdateIslandDispatcherD0Ev, ptr @_ZNK22UpdateIslandDispatcher7forLoopEii] }, comdat, align 8
@_ZTV18btIParallelForBody = linkonce_odr dso_local unnamed_addr constant { [5 x ptr] } { [5 x ptr] [ptr null, ptr @_ZTI18btIParallelForBody, ptr @_ZN18btIParallelForBodyD2Ev, ptr @_ZN18btIParallelForBodyD0Ev, ptr @__cxa_pure_virtual] }, comdat, align 8

; Function Attrs: inlinehint mustprogress nounwind uwtable
define linkonce_odr dso_local noundef i32 @_ZNK20btAlignedObjectArrayIP17btCollisionObjectE4sizeEv(ptr noundef nonnull align 8 dereferenceable(25) %0) #4 comdat align 2 {
  %2 = alloca ptr, align 8
  store ptr %0, ptr %2, align 8, !tbaa !59
  %3 = load ptr, ptr %2, align 8
  %4 = getelementptr inbounds nuw %class.btAlignedObjectArray.2, ptr %3, i32 0, i32 1
  %5 = load i32, ptr %4, align 4, !tbaa !61
  ret i32 %5
}

; Function Attrs: inlinehint mustprogress nounwind uwtable
define linkonce_odr dso_local noundef nonnull align 8 dereferenceable(8) ptr @_ZN20btAlignedObjectArrayIP17btCollisionObjectEixEi(ptr noundef nonnull align 8 dereferenceable(25) %0, i32 noundef %1) #4 comdat align 2 {
  %3 = alloca ptr, align 8
  %4 = alloca i32, align 4
  store ptr %0, ptr %3, align 8, !tbaa !59
  store i32 %1, ptr %4, align 4, !tbaa !9
  %5 = load ptr, ptr %3, align 8
  %6 = getelementptr inbounds nuw %class.btAlignedObjectArray.2, ptr %5, i32 0, i32 4
  %7 = load ptr, ptr %6, align 8, !tbaa !63
  %8 = load i32, ptr %4, align 4, !tbaa !9
  %9 = sext i32 %8 to i64
  %10 = getelementptr inbounds ptr, ptr %7, i64 %9
  ret ptr %10
}

; Function Attrs: inlinehint mustprogress nounwind uwtable
define linkonce_odr dso_local noundef nonnull align 8 dereferenceable(8) ptr @_ZN20btAlignedObjectArrayIP17btTypedConstraintEixEi(ptr noundef nonnull align 8 dereferenceable(25) %0, i32 noundef %1) #4 comdat align 2 {
  %3 = alloca ptr, align 8
  %4 = alloca i32, align 4
  store ptr %0, ptr %3, align 8, !tbaa !73
  store i32 %1, ptr %4, align 4, !tbaa !9
  %5 = load ptr, ptr %3, align 8
  %6 = getelementptr inbounds nuw %class.btAlignedObjectArray.6, ptr %5, i32 0, i32 4
  %7 = load ptr, ptr %6, align 8, !tbaa !80
  %8 = load i32, ptr %4, align 4, !tbaa !9
  %9 = sext i32 %8 to i64
  %10 = getelementptr inbounds ptr, ptr %7, i64 %9
  ret ptr %10
}

; Function Attrs: inlinehint mustprogress nounwind uwtable
define linkonce_odr dso_local noundef i32 @_ZNK20btAlignedObjectArrayIP17btTypedConstraintE4sizeEv(ptr noundef nonnull align 8 dereferenceable(25) %0) #4 comdat align 2 {
  %2 = alloca ptr, align 8
  store ptr %0, ptr %2, align 8, !tbaa !73
  %3 = load ptr, ptr %2, align 8
  %4 = getelementptr inbounds nuw %class.btAlignedObjectArray.6, ptr %3, i32 0, i32 1
  %5 = load i32, ptr %4, align 4, !tbaa !75
  ret i32 %5
}

; Function Attrs: inlinehint mustprogress nounwind uwtable
define linkonce_odr dso_local noundef nonnull align 8 dereferenceable(8) ptr @_ZN20btAlignedObjectArrayIP20btPersistentManifoldEixEi(ptr noundef nonnull align 8 dereferenceable(25) %0, i32 noundef %1) #4 comdat align 2 {
  %3 = alloca ptr, align 8
  %4 = alloca i32, align 4
  store ptr %0, ptr %3, align 8, !tbaa !66
  store i32 %1, ptr %4, align 4, !tbaa !9
  %5 = load ptr, ptr %3, align 8
  %6 = getelementptr inbounds nuw %class.btAlignedObjectArray.0, ptr %5, i32 0, i32 4
  %7 = load ptr, ptr %6, align 8, !tbaa !70
  %8 = load i32, ptr %4, align 4, !tbaa !9
  %9 = sext i32 %8 to i64
  %10 = getelementptr inbounds ptr, ptr %7, i64 %9
  ret ptr %10
}

; Function Attrs: inlinehint mustprogress nounwind uwtable
define linkonce_odr dso_local void @_ZN18btIParallelForBodyC2Ev(ptr noundef nonnull align 8 dereferenceable(8) %0) unnamed_addr #4 comdat align 2 {
  %2 = alloca ptr, align 8
  store ptr %0, ptr %2, align 8, !tbaa !167
  %3 = load ptr, ptr %2, align 8
  store ptr getelementptr inbounds inrange(-16, 24) ({ [5 x ptr] }, ptr @_ZTV18btIParallelForBody, i32 0, i32 0, i32 2), ptr %3, align 8, !tbaa !14
  ret void
}

; Function Attrs: mustprogress nounwind uwtable
define linkonce_odr dso_local void @_ZN18btIParallelForBodyD2Ev(ptr noundef nonnull align 8 dereferenceable(8) %0) unnamed_addr #1 comdat align 2 {
  %2 = alloca ptr, align 8
  store ptr %0, ptr %2, align 8, !tbaa !167
  ret void
}

; Function Attrs: mustprogress uwtable
define dso_local void @_ZN27btSimulationIslandManagerMt11solveIslandEP18btConstraintSolverRNS_6IslandERKNS_12SolverParamsE(ptr noundef %0, ptr noundef nonnull align 8 dereferenceable(101) %1, ptr noundef nonnull align 8 dereferenceable(40) %2) #2 align 2 {
  %4 = alloca ptr, align 8
  %5 = alloca ptr, align 8
  %6 = alloca ptr, align 8
  %7 = alloca ptr, align 8
  %8 = alloca ptr, align 8
  store ptr %0, ptr %4, align 8, !tbaa !159
  store ptr %1, ptr %5, align 8, !tbaa !47
  store ptr %2, ptr %6, align 8, !tbaa !39
  call void @llvm.lifetime.start.p0(i64 8, ptr %7) #13
  %9 = load ptr, ptr %5, align 8, !tbaa !47
  %10 = getelementptr inbounds nuw %"struct.btSimulationIslandManagerMt::Island", ptr %9, i32 0, i32 1
  %11 = call noundef i32 @_ZNK20btAlignedObjectArrayIP20btPersistentManifoldE4sizeEv(ptr noundef nonnull align 8 dereferenceable(25) %10)
  %12 = icmp ne i32 %11, 0
  br i1 %12, label %13, label %17

13:                                               ; preds = %3
  %14 = load ptr, ptr %5, align 8, !tbaa !47
  %15 = getelementptr inbounds nuw %"struct.btSimulationIslandManagerMt::Island", ptr %14, i32 0, i32 1
  %16 = call noundef nonnull align 8 dereferenceable(8) ptr @_ZN20btAlignedObjectArrayIP20btPersistentManifoldEixEi(ptr noundef nonnull align 8 dereferenceable(25) %15, i32 noundef 0)
  br label %18

17:                                               ; preds = %3
  br label %18

18:                                               ; preds = %17, %13
  %19 = phi ptr [ %16, %13 ], [ null, %17 ]
  store ptr %19, ptr %7, align 8, !tbaa !69
  call void @llvm.lifetime.start.p0(i64 8, ptr %8) #13
  %20 = load ptr, ptr %5, align 8, !tbaa !47
  %21 = getelementptr inbounds nuw %"struct.btSimulationIslandManagerMt::Island", ptr %20, i32 0, i32 2
  %22 = call noundef i32 @_ZNK20btAlignedObjectArrayIP17btTypedConstraintE4sizeEv(ptr noundef nonnull align 8 dereferenceable(25) %21)
  %23 = icmp ne i32 %22, 0
  br i1 %23, label %24, label %28

24:                                               ; preds = %18
  %25 = load ptr, ptr %5, align 8, !tbaa !47
  %26 = getelementptr inbounds nuw %"struct.btSimulationIslandManagerMt::Island", ptr %25, i32 0, i32 2
  %27 = call noundef nonnull align 8 dereferenceable(8) ptr @_ZN20btAlignedObjectArrayIP17btTypedConstraintEixEi(ptr noundef nonnull align 8 dereferenceable(25) %26, i32 noundef 0)
  br label %29

28:                                               ; preds = %18
  br label %29

29:                                               ; preds = %28, %24
  %30 = phi ptr [ %27, %24 ], [ null, %28 ]
  store ptr %30, ptr %8, align 8, !tbaa !79
  %31 = load ptr, ptr %4, align 8, !tbaa !159
  %32 = load ptr, ptr %5, align 8, !tbaa !47
  %33 = getelementptr inbounds nuw %"struct.btSimulationIslandManagerMt::Island", ptr %32, i32 0, i32 0
  %34 = call noundef nonnull align 8 dereferenceable(8) ptr @_ZN20btAlignedObjectArrayIP17btCollisionObjectEixEi(ptr noundef nonnull align 8 dereferenceable(25) %33, i32 noundef 0)
  %35 = load ptr, ptr %5, align 8, !tbaa !47
  %36 = getelementptr inbounds nuw %"struct.btSimulationIslandManagerMt::Island", ptr %35, i32 0, i32 0
  %37 = call noundef i32 @_ZNK20btAlignedObjectArrayIP17btCollisionObjectE4sizeEv(ptr noundef nonnull align 8 dereferenceable(25) %36)
  %38 = load ptr, ptr %7, align 8, !tbaa !69
  %39 = load ptr, ptr %5, align 8, !tbaa !47
  %40 = getelementptr inbounds nuw %"struct.btSimulationIslandManagerMt::Island", ptr %39, i32 0, i32 1
  %41 = call noundef i32 @_ZNK20btAlignedObjectArrayIP20btPersistentManifoldE4sizeEv(ptr noundef nonnull align 8 dereferenceable(25) %40)
  %42 = load ptr, ptr %8, align 8, !tbaa !79
  %43 = load ptr, ptr %5, align 8, !tbaa !47
  %44 = getelementptr inbounds nuw %"struct.btSimulationIslandManagerMt::Island", ptr %43, i32 0, i32 2
  %45 = call noundef i32 @_ZNK20btAlignedObjectArrayIP17btTypedConstraintE4sizeEv(ptr noundef nonnull align 8 dereferenceable(25) %44)
  %46 = load ptr, ptr %6, align 8, !tbaa !39
  %47 = getelementptr inbounds nuw %"struct.btSimulationIslandManagerMt::SolverParams", ptr %46, i32 0, i32 2
  %48 = load ptr, ptr %47, align 8, !tbaa !160
  %49 = load ptr, ptr %6, align 8, !tbaa !39
  %50 = getelementptr inbounds nuw %"struct.btSimulationIslandManagerMt::SolverParams", ptr %49, i32 0, i32 3
  %51 = load ptr, ptr %50, align 8, !tbaa !161
  %52 = load ptr, ptr %6, align 8, !tbaa !39
  %53 = getelementptr inbounds nuw %"struct.btSimulationIslandManagerMt::SolverParams", ptr %52, i32 0, i32 4
  %54 = load ptr, ptr %53, align 8, !tbaa !162
  %55 = load ptr, ptr %31, align 8, !tbaa !14
  %56 = getelementptr inbounds ptr, ptr %55, i64 3
  %57 = load ptr, ptr %56, align 8
  %58 = call noundef float %57(ptr noundef nonnull align 8 dereferenceable(8) %31, ptr noundef %34, i32 noundef %37, ptr noundef %38, i32 noundef %41, ptr noundef %42, i32 noundef %45, ptr noundef nonnull align 4 dereferenceable(128) %48, ptr noundef %51, ptr noundef %54)
  call void @llvm.lifetime.end.p0(i64 8, ptr %8) #13
  call void @llvm.lifetime.end.p0(i64 8, ptr %7) #13
  ret void
}

; Function Attrs: inlinehint mustprogress nounwind uwtable
define linkonce_odr dso_local noundef i32 @_ZNK20btAlignedObjectArrayIP20btPersistentManifoldE4sizeEv(ptr noundef nonnull align 8 dereferenceable(25) %0) #4 comdat align 2 {
  %2 = alloca ptr, align 8
  store ptr %0, ptr %2, align 8, !tbaa !66
  %3 = load ptr, ptr %2, align 8
  %4 = getelementptr inbounds nuw %class.btAlignedObjectArray.0, ptr %3, i32 0, i32 1
  %5 = load i32, ptr %4, align 4, !tbaa !68
  ret i32 %5
}

; Function Attrs: inlinehint mustprogress nounwind uwtable
define linkonce_odr dso_local noundef nonnull align 8 dereferenceable(8) ptr @_ZN20btAlignedObjectArrayIPN27btSimulationIslandManagerMt6IslandEEixEi(ptr noundef nonnull align 8 dereferenceable(25) %0, i32 noundef %1) #4 comdat align 2 {
  %3 = alloca ptr, align 8
  %4 = alloca i32, align 4
  store ptr %0, ptr %3, align 8, !tbaa !37
  store i32 %1, ptr %4, align 4, !tbaa !9
  %5 = load ptr, ptr %3, align 8
  %6 = getelementptr inbounds nuw %class.btAlignedObjectArray.4, ptr %5, i32 0, i32 4
  %7 = load ptr, ptr %6, align 8, !tbaa !52
  %8 = load i32, ptr %4, align 4, !tbaa !9
  %9 = sext i32 %8 to i64
  %10 = getelementptr inbounds ptr, ptr %7, i64 %9
  ret ptr %10
}

; Function Attrs: inlinehint mustprogress nounwind uwtable
define linkonce_odr dso_local noundef i32 @_ZNK20btAlignedObjectArrayIPN27btSimulationIslandManagerMt6IslandEE4sizeEv(ptr noundef nonnull align 8 dereferenceable(25) %0) #4 comdat align 2 {
  %2 = alloca ptr, align 8
  store ptr %0, ptr %2, align 8, !tbaa !37
  %3 = load ptr, ptr %2, align 8
  %4 = getelementptr inbounds nuw %class.btAlignedObjectArray.4, ptr %3, i32 0, i32 1
  %5 = load i32, ptr %4, align 4, !tbaa !51
  ret i32 %5
}

; Function Attrs: mustprogress nounwind uwtable
define linkonce_odr dso_local void @_ZN22UpdateIslandDispatcherC2ER20btAlignedObjectArrayIPN27btSimulationIslandManagerMt6IslandEERKNS1_12SolverParamsE(ptr noundef nonnull align 8 dereferenceable(24) %0, ptr noundef nonnull align 8 dereferenceable(25) %1, ptr noundef nonnull align 8 dereferenceable(40) %2) unnamed_addr #1 comdat align 2 {
  %4 = alloca ptr, align 8
  %5 = alloca ptr, align 8
  %6 = alloca ptr, align 8
  store ptr %0, ptr %4, align 8, !tbaa !165
  store ptr %1, ptr %5, align 8, !tbaa !37
  store ptr %2, ptr %6, align 8, !tbaa !39
  %7 = load ptr, ptr %4, align 8
  call void @_ZN18btIParallelForBodyC2Ev(ptr noundef nonnull align 8 dereferenceable(8) %7) #13
  store ptr getelementptr inbounds inrange(-16, 24) ({ [5 x ptr] }, ptr @_ZTV22UpdateIslandDispatcher, i32 0, i32 0, i32 2), ptr %7, align 8, !tbaa !14
  %8 = getelementptr inbounds nuw %struct.UpdateIslandDispatcher, ptr %7, i32 0, i32 1
  %9 = load ptr, ptr %5, align 8, !tbaa !37
  store ptr %9, ptr %8, align 8, !tbaa !37
  %10 = getelementptr inbounds nuw %struct.UpdateIslandDispatcher, ptr %7, i32 0, i32 2
  %11 = load ptr, ptr %6, align 8, !tbaa !39
  store ptr %11, ptr %10, align 8, !tbaa !39
  ret void
}

; Function Attrs: mustprogress uwtable
define dso_local void @_ZN27btSimulationIslandManagerMt22parallelIslandDispatchEP20btAlignedObjectArrayIPNS_6IslandEERKNS_12SolverParamsE(ptr noundef %0, ptr noundef nonnull align 8 dereferenceable(40) %1) #2 align 2 personality ptr @__gxx_personality_v0 {
  %3 = alloca ptr, align 8
  %4 = alloca ptr, align 8
  %5 = alloca %class.CProfileSample, align 1
  %6 = alloca %struct.UpdateIslandDispatcher, align 8
  %7 = alloca ptr, align 8
  %8 = alloca i32, align 4
  %9 = alloca i32, align 4
  %10 = alloca ptr, align 8
  %11 = alloca i32, align 4
  store ptr %0, ptr %3, align 8, !tbaa !37
  store ptr %1, ptr %4, align 8, !tbaa !39
  call void @llvm.lifetime.start.p0(i64 1, ptr %5) #13
  call void @_ZN14CProfileSampleC1EPKc(ptr noundef nonnull align 1 dereferenceable(1) %5, ptr noundef @.str.2)
  call void @llvm.lifetime.start.p0(i64 24, ptr %6) #13
  %12 = load ptr, ptr %3, align 8, !tbaa !37
  %13 = load ptr, ptr %4, align 8, !tbaa !39
  invoke void @_ZN22UpdateIslandDispatcherC2ER20btAlignedObjectArrayIPN27btSimulationIslandManagerMt6IslandEERKNS1_12SolverParamsE(ptr noundef nonnull align 8 dereferenceable(24) %6, ptr noundef nonnull align 8 dereferenceable(25) %12, ptr noundef nonnull align 8 dereferenceable(40) %13)
          to label %14 unwind label %39

14:                                               ; preds = %2
  call void @llvm.lifetime.start.p0(i64 4, ptr %9) #13
  store i32 0, ptr %9, align 4, !tbaa !9
  %15 = load ptr, ptr %4, align 8, !tbaa !39
  %16 = getelementptr inbounds nuw %"struct.btSimulationIslandManagerMt::SolverParams", ptr %15, i32 0, i32 1
  %17 = load ptr, ptr %16, align 8, !tbaa !41
  %18 = icmp ne ptr %17, null
  br i1 %18, label %19, label %64

19:                                               ; preds = %14
  br label %20

20:                                               ; preds = %62, %19
  %21 = load i32, ptr %9, align 4, !tbaa !9
  %22 = load ptr, ptr %3, align 8, !tbaa !37
  %23 = invoke noundef i32 @_ZNK20btAlignedObjectArrayIPN27btSimulationIslandManagerMt6IslandEE4sizeEv(ptr noundef nonnull align 8 dereferenceable(25) %22)
          to label %24 unwind label %43

24:                                               ; preds = %20
  %25 = icmp slt i32 %21, %23
  br i1 %25, label %26, label %63

26:                                               ; preds = %24
  call void @llvm.lifetime.start.p0(i64 8, ptr %10) #13
  %27 = load ptr, ptr %3, align 8, !tbaa !37
  %28 = load i32, ptr %9, align 4, !tbaa !9
  %29 = invoke noundef nonnull align 8 dereferenceable(8) ptr @_ZN20btAlignedObjectArrayIPN27btSimulationIslandManagerMt6IslandEEixEi(ptr noundef nonnull align 8 dereferenceable(25) %27, i32 noundef %28)
          to label %30 unwind label %47

30:                                               ; preds = %26
  %31 = load ptr, ptr %29, align 8, !tbaa !47
  store ptr %31, ptr %10, align 8, !tbaa !47
  %32 = load ptr, ptr %10, align 8, !tbaa !47
  %33 = getelementptr inbounds nuw %"struct.btSimulationIslandManagerMt::Island", ptr %32, i32 0, i32 1
  %34 = invoke noundef i32 @_ZNK20btAlignedObjectArrayIP20btPersistentManifoldE4sizeEv(ptr noundef nonnull align 8 dereferenceable(25) %33)
          to label %35 unwind label %47

35:                                               ; preds = %30
  %36 = load i32, ptr @_ZN37btSequentialImpulseConstraintSolverMt36s_minimumContactManifoldsForBatchingE, align 4, !tbaa !9
  %37 = icmp slt i32 %34, %36
  br i1 %37, label %38, label %51

38:                                               ; preds = %35
  store i32 3, ptr %11, align 4
  br label %60

39:                                               ; preds = %2
  %40 = landingpad { ptr, i32 }
          cleanup
  %41 = extractvalue { ptr, i32 } %40, 0
  store ptr %41, ptr %7, align 8
  %42 = extractvalue { ptr, i32 } %40, 1
  store i32 %42, ptr %8, align 4
  br label %71

43:                                               ; preds = %68, %64, %20
  %44 = landingpad { ptr, i32 }
          cleanup
  %45 = extractvalue { ptr, i32 } %44, 0
  store ptr %45, ptr %7, align 8
  %46 = extractvalue { ptr, i32 } %44, 1
  store i32 %46, ptr %8, align 4
  br label %70

47:                                               ; preds = %51, %30, %26
  %48 = landingpad { ptr, i32 }
          cleanup
  %49 = extractvalue { ptr, i32 } %48, 0
  store ptr %49, ptr %7, align 8
  %50 = extractvalue { ptr, i32 } %48, 1
  store i32 %50, ptr %8, align 4
  call void @llvm.lifetime.end.p0(i64 8, ptr %10) #13
  br label %70

51:                                               ; preds = %35
  %52 = load ptr, ptr %4, align 8, !tbaa !39
  %53 = getelementptr inbounds nuw %"struct.btSimulationIslandManagerMt::SolverParams", ptr %52, i32 0, i32 1
  %54 = load ptr, ptr %53, align 8, !tbaa !41
  %55 = load ptr, ptr %10, align 8, !tbaa !47
  %56 = load ptr, ptr %4, align 8, !tbaa !39
  invoke void @_ZN27btSimulationIslandManagerMt11solveIslandEP18btConstraintSolverRNS_6IslandERKNS_12SolverParamsE(ptr noundef %54, ptr noundef nonnull align 8 dereferenceable(101) %55, ptr noundef nonnull align 8 dereferenceable(40) %56)
          to label %57 unwind label %47

57:                                               ; preds = %51
  %58 = load i32, ptr %9, align 4, !tbaa !9
  %59 = add nsw i32 %58, 1
  store i32 %59, ptr %9, align 4, !tbaa !9
  store i32 0, ptr %11, align 4
  br label %60

60:                                               ; preds = %57, %38
  call void @llvm.lifetime.end.p0(i64 8, ptr %10) #13
  %61 = load i32, ptr %11, align 4
  switch i32 %61, label %77 [
    i32 0, label %62
    i32 3, label %63
  ]

62:                                               ; preds = %60
  br label %20, !llvm.loop !48

63:                                               ; preds = %60, %24
  br label %64

64:                                               ; preds = %63, %14
  %65 = load i32, ptr %9, align 4, !tbaa !9
  %66 = load ptr, ptr %3, align 8, !tbaa !37
  %67 = invoke noundef i32 @_ZNK20btAlignedObjectArrayIPN27btSimulationIslandManagerMt6IslandEE4sizeEv(ptr noundef nonnull align 8 dereferenceable(25) %66)
          to label %68 unwind label %43

68:                                               ; preds = %64
  invoke void @_Z13btParallelForiiiRK18btIParallelForBody(i32 noundef %65, i32 noundef %67, i32 noundef 1, ptr noundef nonnull align 8 dereferenceable(8) %6)
          to label %69 unwind label %43

69:                                               ; preds = %68
  call void @llvm.lifetime.end.p0(i64 4, ptr %9) #13
  call void @_ZN18btIParallelForBodyD2Ev(ptr noundef nonnull align 8 dereferenceable(24) %6) #13
  call void @llvm.lifetime.end.p0(i64 24, ptr %6) #13
  call void @_ZN14CProfileSampleD1Ev(ptr noundef nonnull align 1 dereferenceable(1) %5) #13
  call void @llvm.lifetime.end.p0(i64 1, ptr %5) #13
  ret void

70:                                               ; preds = %47, %43
  call void @llvm.lifetime.end.p0(i64 4, ptr %9) #13
  call void @_ZN18btIParallelForBodyD2Ev(ptr noundef nonnull align 8 dereferenceable(24) %6) #13
  br label %71

71:                                               ; preds = %70, %39
  call void @llvm.lifetime.end.p0(i64 24, ptr %6) #13
  call void @_ZN14CProfileSampleD1Ev(ptr noundef nonnull align 1 dereferenceable(1) %5) #13
  call void @llvm.lifetime.end.p0(i64 1, ptr %5) #13
  br label %72

72:                                               ; preds = %71
  %73 = load ptr, ptr %7, align 8
  %74 = load i32, ptr %8, align 4
  %75 = insertvalue { ptr, i32 } poison, ptr %73, 0
  %76 = insertvalue { ptr, i32 } %75, i32 %74, 1
  resume { ptr, i32 } %76

77:                                               ; preds = %60
  unreachable
}