; Function Attrs: mustprogress uwtable
define dso_local void @_ZN27btSimulationIslandManagerMt22parallelIslandDispatchEP20btAlignedObjectArrayIPNS_6IslandEERKNS_12SolverParamsE(ptr noundef %0, ptr noundef nonnull align 8 dereferenceable(40) %1) #0 align 2 personality ptr @__gxx_personality_v0 {
  %3 = alloca %class.CProfileSample, align 1
  %4 = alloca %struct.UpdateIslandDispatcher, align 8
  call void @llvm.lifetime.start.p0(i64 1, ptr nonnull %3) #14
  call void @_ZN14CProfileSampleC1EPKc(ptr noundef nonnull align 1 dereferenceable(1) %3, ptr noundef nonnull @.str.2)
  call void @llvm.lifetime.start.p0(i64 24, ptr nonnull %4) #14
  store ptr getelementptr inbounds nuw inrange(-16, 24) (i8, ptr @_ZTV22UpdateIslandDispatcher, i64 16), ptr %4, align 8, !tbaa !4
  %5 = getelementptr inbounds nuw i8, ptr %4, i64 8
  store ptr %0, ptr %5, align 8, !tbaa !35
  %6 = getelementptr inbounds nuw i8, ptr %4, i64 16
  store ptr %1, ptr %6, align 8, !tbaa !37
  %7 = getelementptr inbounds nuw i8, ptr %1, i64 8
  %8 = load ptr, ptr %7, align 8, !tbaa !39
  %.not = icmp ne ptr %8, null
  %.phi.trans.insert = getelementptr inbounds nuw i8, ptr %0, i64 4
  %.pre = load i32, ptr %.phi.trans.insert, align 4, !tbaa !16
  %9 = icmp sgt i32 %.pre, 0
  %or.cond = select i1 %.not, i1 %9, i1 false
  br i1 %or.cond, label %.lr.ph, label %.thread

.lr.ph:                                           ; preds = %2
  %10 = getelementptr inbounds nuw i8, ptr %0, i64 16
  %11 = getelementptr inbounds nuw i8, ptr %1, i64 16
  %12 = getelementptr inbounds nuw i8, ptr %1, i64 24
  %13 = getelementptr inbounds nuw i8, ptr %1, i64 32
  %14 = load ptr, ptr %10, align 8, !tbaa !15
  %15 = load ptr, ptr %14, align 8, !tbaa !45
  %16 = getelementptr inbounds nuw i8, ptr %15, i64 36
  %17 = load i32, ptr %16, align 4, !tbaa !46
  %18 = load i32, ptr @_ZN37btSequentialImpulseConstraintSolverMt36s_minimumContactManifoldsForBatchingE, align 4, !tbaa !47
  %19 = icmp slt i32 %17, %18
  br i1 %19, label %.thread, label %.lr.ph29

20:                                               ; preds = %54
  %21 = load ptr, ptr %10, align 8, !tbaa !15
  %22 = getelementptr inbounds nuw ptr, ptr %21, i64 %indvars.iv.next
  %23 = load ptr, ptr %22, align 8, !tbaa !45
  %24 = getelementptr inbounds nuw i8, ptr %23, i64 36
  %25 = load i32, ptr %24, align 4, !tbaa !46
  %26 = load i32, ptr @_ZN37btSequentialImpulseConstraintSolverMt36s_minimumContactManifoldsForBatchingE, align 4, !tbaa !47
  %27 = icmp slt i32 %25, %26
  br i1 %27, label %.thread.loopexit.loopexit, label %.lr.ph29

28:                                               ; preds = %.thread
  %29 = landingpad { ptr, i32 }
          cleanup
  br label %61

30:                                               ; preds = %.lr.ph29
  %31 = landingpad { ptr, i32 }
          cleanup
  br label %61

.lr.ph29:                                         ; preds = %.lr.ph, %20
  %32 = phi i32 [ %25, %20 ], [ %17, %.lr.ph ]
  %33 = phi ptr [ %23, %20 ], [ %15, %.lr.ph ]
  %indvars.iv28 = phi i64 [ %indvars.iv.next, %20 ], [ 0, %.lr.ph ]
  %34 = load ptr, ptr %7, align 8, !tbaa !39
  %.not.i = icmp eq i32 %32, 0
  %35 = getelementptr inbounds nuw i8, ptr %33, i64 48
  %36 = load ptr, ptr %35, align 8
  %37 = select i1 %.not.i, ptr null, ptr %36
  %38 = getelementptr inbounds nuw i8, ptr %33, i64 68
  %39 = load i32, ptr %38, align 4, !tbaa !48
  %.not14.i = icmp eq i32 %39, 0
  %40 = getelementptr inbounds nuw i8, ptr %33, i64 80
  %41 = load ptr, ptr %40, align 8
  %42 = select i1 %.not14.i, ptr null, ptr %41
  %43 = getelementptr inbounds nuw i8, ptr %33, i64 16
  %44 = load ptr, ptr %43, align 8, !tbaa !52
  %45 = getelementptr inbounds nuw i8, ptr %33, i64 4
  %46 = load i32, ptr %45, align 4, !tbaa !53
  %47 = load ptr, ptr %11, align 8, !tbaa !54
  %48 = load ptr, ptr %12, align 8, !tbaa !55
  %49 = load ptr, ptr %13, align 8, !tbaa !56
  %50 = load ptr, ptr %34, align 8, !tbaa !4
  %51 = getelementptr inbounds nuw i8, ptr %50, i64 24
  %52 = load ptr, ptr %51, align 8
  %53 = invoke noundef float %52(ptr noundef nonnull align 8 dereferenceable(8) %34, ptr noundef nonnull %44, i32 noundef %46, ptr noundef %37, i32 noundef %32, ptr noundef %42, i32 noundef %39, ptr noundef nonnull align 4 dereferenceable(128) %47, ptr noundef %48, ptr noundef %49)
          to label %54 unwind label %30

54:                                               ; preds = %.lr.ph29
  %indvars.iv.next = add nuw nsw i64 %indvars.iv28, 1
  %55 = load i32, ptr %.phi.trans.insert, align 4, !tbaa !16
  %56 = sext i32 %55 to i64
  %57 = icmp slt i64 %indvars.iv.next, %56
  br i1 %57, label %20, label %.thread.loopexit.loopexit

.thread.loopexit.loopexit:                        ; preds = %20, %54
  %58 = trunc i64 %indvars.iv.next to i32
  br label %.thread

.thread:                                          ; preds = %.lr.ph, %.thread.loopexit.loopexit, %2
  %59 = phi i32 [ %.pre, %2 ], [ %.pre, %.lr.ph ], [ %55, %.thread.loopexit.loopexit ]
  %.017 = phi i32 [ 0, %2 ], [ 0, %.lr.ph ], [ %58, %.thread.loopexit.loopexit ]
  invoke void @_Z13btParallelForiiiRK18btIParallelForBody(i32 noundef %.017, i32 noundef %59, i32 noundef 1, ptr noundef nonnull align 8 dereferenceable(8) %4)
          to label %60 unwind label %28

60:                                               ; preds = %.thread
  call void @llvm.lifetime.end.p0(i64 24, ptr nonnull %4) #14
  call void @_ZN14CProfileSampleD1Ev(ptr noundef nonnull align 1 dereferenceable(1) %3) #14
  call void @llvm.lifetime.end.p0(i64 1, ptr nonnull %3) #14
  ret void

61:                                               ; preds = %30, %28
  %.pn = phi { ptr, i32 } [ %29, %28 ], [ %31, %30 ]
  call void @llvm.lifetime.end.p0(i64 24, ptr nonnull %4) #14
  call void @_ZN14CProfileSampleD1Ev(ptr noundef nonnull align 1 dereferenceable(1) %3) #14
  call void @llvm.lifetime.end.p0(i64 1, ptr nonnull %3) #14
  resume { ptr, i32 } %.pn
}